; ModuleID = '42/335.c'
source_filename = "42/335.c"
target datalayout = "e-m:e-p270:32:32-p271:32:32-p272:64:64-i64:64-f80:128-n8:16:32:64-S128"
target triple = "x86_64-pc-linux-gnu"

@.str = private unnamed_addr constant [3 x i8] c"%d\00", align 1
@.str.1 = private unnamed_addr constant [2 x i8] c" \00", align 1

; Function Attrs: noinline nounwind uwtable
define dso_local i32 @main() #0 {
  %1 = alloca i32, align 4
  %2 = alloca [100000 x i32], align 16
  %3 = alloca i32, align 4
  %4 = alloca i32, align 4
  %5 = alloca i32, align 4
  %6 = alloca i32, align 4
  %7 = alloca i32, align 4
  %8 = alloca i32, align 4
  %9 = alloca i32, align 4
  %10 = alloca i32, align 4
  store i32 0, i32* %1, align 4
  %11 = call i32 (i8*, ...) @__isoc99_scanf(i8* getelementptr inbounds ([3 x i8], [3 x i8]* @.str, i64 0, i64 0), i32* %3)
  store i32 0, i32* %6, align 4
  br label %12

12:                                               ; preds = %22, %0
  %13 = load i32, i32* %6, align 4
  %14 = load i32, i32* %3, align 4
  %15 = sub nsw i32 %14, 1
  %16 = icmp sle i32 %13, %15
  br i1 %16, label %17, label %25

17:                                               ; preds = %12
  %18 = load i32, i32* %6, align 4
  %19 = sext i32 %18 to i64
  %20 = getelementptr inbounds [100000 x i32], [100000 x i32]* %2, i64 0, i64 %19
  %21 = call i32 (i8*, ...) @__isoc99_scanf(i8* getelementptr inbounds ([3 x i8], [3 x i8]* @.str, i64 0, i64 0), i32* %20)
  br label %22

22:                                               ; preds = %17
  %23 = load i32, i32* %6, align 4
  %24 = add nsw i32 %23, 1
  store i32 %24, i32* %6, align 4
  br label %12

25:                                               ; preds = %12
  %26 = call i32 (i8*, ...) @__isoc99_scanf(i8* getelementptr inbounds ([3 x i8], [3 x i8]* @.str, i64 0, i64 0), i32* %4)
  %27 = load i32, i32* %3, align 4
  store i32 %27, i32* %5, align 4
  %28 = load i32, i32* %3, align 4
  %29 = sub nsw i32 %28, 1
  store i32 %29, i32* %7, align 4
  br label %30

30:                                               ; preds = %40, %25
  %31 = load i32, i32* %7, align 4
  %32 = sext i32 %31 to i64
  %33 = getelementptr inbounds [100000 x i32], [100000 x i32]* %2, i64 0, i64 %32
  %34 = load i32, i32* %33, align 4
  %35 = load i32, i32* %4, align 4
  %36 = icmp eq i32 %34, %35
  br i1 %36, label %37, label %43

37:                                               ; preds = %30
  %38 = load i32, i32* %5, align 4
  %39 = sub nsw i32 %38, 1
  store i32 %39, i32* %5, align 4
  br label %40

40:                                               ; preds = %37
  %41 = load i32, i32* %7, align 4
  %42 = add nsw i32 %41, -1
  store i32 %42, i32* %7, align 4
  br label %30

43:                                               ; preds = %30
  store i32 0, i32* %8, align 4
  br label %44

44:                                               ; preds = %80, %43
  %45 = load i32, i32* %8, align 4
  %46 = load i32, i32* %5, align 4
  %47 = sub nsw i32 %46, 1
  %48 = icmp sle i32 %45, %47
  br i1 %48, label %49, label %83

49:                                               ; preds = %44
  br label %50

50:                                               ; preds = %76, %49
  %51 = load i32, i32* %8, align 4
  %52 = sext i32 %51 to i64
  %53 = getelementptr inbounds [100000 x i32], [100000 x i32]* %2, i64 0, i64 %52
  %54 = load i32, i32* %53, align 4
  %55 = load i32, i32* %4, align 4
  %56 = icmp eq i32 %54, %55
  br i1 %56, label %57, label %79

57:                                               ; preds = %50
  %58 = load i32, i32* %8, align 4
  store i32 %58, i32* %9, align 4
  br label %59

59:                                               ; preds = %73, %57
  %60 = load i32, i32* %9, align 4
  %61 = load i32, i32* %5, align 4
  %62 = sub nsw i32 %61, 2
  %63 = icmp sle i32 %60, %62
  br i1 %63, label %64, label %76

64:                                               ; preds = %59
  %65 = load i32, i32* %9, align 4
  %66 = add nsw i32 %65, 1
  %67 = sext i32 %66 to i64
  %68 = getelementptr inbounds [100000 x i32], [100000 x i32]* %2, i64 0, i64 %67
  %69 = load i32, i32* %68, align 4
  %70 = load i32, i32* %9, align 4
  %71 = sext i32 %70 to i64
  %72 = getelementptr inbounds [100000 x i32], [100000 x i32]* %2, i64 0, i64 %71
  store i32 %69, i32* %72, align 4
  br label %73

73:                                               ; preds = %64
  %74 = load i32, i32* %9, align 4
  %75 = add nsw i32 %74, 1
  store i32 %75, i32* %9, align 4
  br label %59

76:                                               ; preds = %59
  %77 = load i32, i32* %5, align 4
  %78 = sub nsw i32 %77, 1
  store i32 %78, i32* %5, align 4
  br label %50

79:                                               ; preds = %50
  br label %80

80:                                               ; preds = %79
  %81 = load i32, i32* %8, align 4
  %82 = add nsw i32 %81, 1
  store i32 %82, i32* %8, align 4
  br label %44

83:                                               ; preds = %44
  store i32 0, i32* %10, align 4
  br label %84

84:                                               ; preds = %102, %83
  %85 = load i32, i32* %10, align 4
  %86 = load i32, i32* %5, align 4
  %87 = sub nsw i32 %86, 1
  %88 = icmp sle i32 %85, %87
  br i1 %88, label %89, label %105

89:                                               ; preds = %84
  %90 = load i32, i32* %10, align 4
  %91 = sext i32 %90 to i64
  %92 = getelementptr inbounds [100000 x i32], [100000 x i32]* %2, i64 0, i64 %91
  %93 = load i32, i32* %92, align 4
  %94 = call i32 (i8*, ...) @printf(i8* getelementptr inbounds ([3 x i8], [3 x i8]* @.str, i64 0, i64 0), i32 %93)
  %95 = load i32, i32* %10, align 4
  %96 = load i32, i32* %5, align 4
  %97 = sub nsw i32 %96, 2
  %98 = icmp sle i32 %95, %97
  br i1 %98, label %99, label %101

99:                                               ; preds = %89
  %100 = call i32 (i8*, ...) @printf(i8* getelementptr inbounds ([2 x i8], [2 x i8]* @.str.1, i64 0, i64 0))
  br label %101

101:                                              ; preds = %99, %89
  br label %102

102:                                              ; preds = %101
  %103 = load i32, i32* %10, align 4
  %104 = add nsw i32 %103, 1
  store i32 %104, i32* %10, align 4
  br label %84

105:                                              ; preds = %84
  ret i32 0
}

declare dso_local i32 @__isoc99_scanf(i8*, ...) #1

declare dso_local i32 @printf(i8*, ...) #1


!llvm.module.flags = !{!0}
!llvm.ident = !{!1}

!0 = !{i32 1, !"wchar_size", i32 4}
!1 = !{!"clang version 10.0.0-4ubuntu1 "}
